target datalayout = "e-m:e-p270:32:32-p271:32:32-p272:64:64-i64:64-i128:128-f80:128-n8:16:32:64-S128"
target triple = "x86_64-pc-linux-gnu"

%struct.TupleDescData = type { i32, i32, i32, i32, ptr, [0 x %struct.CompactAttribute] }
%struct.CompactAttribute = type { i32, i16, i8, i8, i8, i8, i8, i8, i8 }
%struct.ExpandedRecordHeader = type { %struct.ExpandedObjectHeader, i32, i32, i32, i32, i32, ptr, i64, ptr, ptr, i32, i64, i64, i32, i8, ptr, ptr, ptr, ptr, ptr, ptr, %struct.MemoryContextCallback }
%struct.ExpandedObjectHeader = type { i32, ptr, ptr, [10 x i8], [10 x i8] }
%struct.MemoryContextCallback = type { ptr, ptr, ptr }

; Function Attrs: nounwind uwtable
define internal void @ER_mc_callback(ptr noundef %0) #0 {
  %2 = alloca ptr, align 8
  %3 = alloca ptr, align 8
  %4 = alloca ptr, align 8
  store ptr %0, ptr %2, align 8
  call void @llvm.lifetime.start.p0(i64 8, ptr %3) #9
  %5 = load ptr, ptr %2, align 8
  store ptr %5, ptr %3, align 8
  call void @llvm.lifetime.start.p0(i64 8, ptr %4) #9
  %6 = load ptr, ptr %3, align 8
  %7 = getelementptr inbounds nuw %struct.ExpandedRecordHeader, ptr %6, i32 0, i32 6
  %8 = load ptr, ptr %7, align 8
  store ptr %8, ptr %4, align 8
  %9 = load ptr, ptr %4, align 8
  %10 = icmp ne ptr %9, null
  br i1 %10, label %11, label %28

11:                                               ; preds = %1
  %12 = load ptr, ptr %3, align 8
  %13 = getelementptr inbounds nuw %struct.ExpandedRecordHeader, ptr %12, i32 0, i32 6
  store ptr null, ptr %13, align 8
  %14 = load ptr, ptr %4, align 8
  %15 = getelementptr inbounds nuw %struct.TupleDescData, ptr %14, i32 0, i32 3
  %16 = load i32, ptr %15, align 4
  %17 = icmp sgt i32 %16, 0
  br i1 %17, label %18, label %27

18:                                               ; preds = %11
  %19 = load ptr, ptr %4, align 8
  %20 = getelementptr inbounds nuw %struct.TupleDescData, ptr %19, i32 0, i32 3
  %21 = load i32, ptr %20, align 4
  %22 = add i32 %21, -1
  store i32 %22, ptr %20, align 4
  %23 = icmp eq i32 %22, 0
  br i1 %23, label %24, label %26

24:                                               ; preds = %18
  %25 = load ptr, ptr %4, align 8
  call void @FreeTupleDesc(ptr noundef %25)
  br label %26

26:                                               ; preds = %24, %18
  br label %27

27:                                               ; preds = %26, %11
  br label %28

28:                                               ; preds = %27, %1
  call void @llvm.lifetime.end.p0(i64 8, ptr %4) #9
  call void @llvm.lifetime.end.p0(i64 8, ptr %3) #9
  ret void
}