; Function Attrs: nounwind uwtable
define internal void @ER_mc_callback(ptr noundef captures(none) %0) #0 {
  %2 = getelementptr inbounds nuw i8, ptr %0, i64 72
  %3 = load ptr, ptr %2, align 8
  %.not = icmp eq ptr %3, null
  br i1 %.not, label %12, label %4

4:                                                ; preds = %1
  store ptr null, ptr %2, align 8
  %5 = getelementptr inbounds nuw i8, ptr %3, i64 12
  %6 = load i32, ptr %5, align 4
  %7 = icmp sgt i32 %6, 0
  br i1 %7, label %8, label %12

8:                                                ; preds = %4
  %9 = add nsw i32 %6, -1
  store i32 %9, ptr %5, align 4
  %10 = icmp eq i32 %9, 0
  br i1 %10, label %11, label %12

11:                                               ; preds = %8
  tail call void @FreeTupleDesc(ptr noundef nonnull %3) #8
  br label %12

12:                                               ; preds = %4, %11, %8, %1
  ret void
}